target datalayout = "e-m:e-p270:32:32-p271:32:32-p272:64:64-i64:64-i128:128-f80:128-n8:16:32:64-S128"
target triple = "x86_64-pc-linux-gnu"

%struct.Node = type { i32 }
%struct.Plan = type { i32, i32, double, double, double, i32, i8, i8, i8, i32, ptr, ptr, ptr, ptr, ptr, ptr, ptr }
%struct.Scan = type { %struct.Plan, i32 }
%struct.ForeignScan = type { %struct.Scan, i32, i32, i32, i32, ptr, ptr, ptr, ptr, ptr, ptr, i8 }

; Function Attrs: inlinehint nounwind uwtable
define internal ptr @newNode(i64 noundef %0, i32 noundef %1) #4 {
  %3 = alloca i64, align 8
  %4 = alloca i32, align 4
  %5 = alloca ptr, align 8
  store i64 %0, ptr %3, align 8
  store i32 %1, ptr %4, align 4
  call void @llvm.lifetime.start.p0(i64 8, ptr %5) #10
  %6 = load i64, ptr %3, align 8
  %7 = call ptr @palloc0(i64 noundef %6)
  store ptr %7, ptr %5, align 8
  %8 = load i32, ptr %4, align 4
  %9 = load ptr, ptr %5, align 8
  %10 = getelementptr inbounds nuw %struct.Node, ptr %9, i32 0, i32 0
  store i32 %8, ptr %10, align 4
  %11 = load ptr, ptr %5, align 8
  call void @llvm.lifetime.end.p0(i64 8, ptr %5) #10
  ret ptr %11
}

; Function Attrs: nounwind uwtable
define dso_local ptr @make_foreignscan(ptr noundef %0, ptr noundef %1, i32 noundef %2, ptr noundef %3, ptr noundef %4, ptr noundef %5, ptr noundef %6, ptr noundef %7) #0 {
  %9 = alloca ptr, align 8
  %10 = alloca ptr, align 8
  %11 = alloca i32, align 4
  %12 = alloca ptr, align 8
  %13 = alloca ptr, align 8
  %14 = alloca ptr, align 8
  %15 = alloca ptr, align 8
  %16 = alloca ptr, align 8
  %17 = alloca ptr, align 8
  %18 = alloca ptr, align 8
  store ptr %0, ptr %9, align 8
  store ptr %1, ptr %10, align 8
  store i32 %2, ptr %11, align 4
  store ptr %3, ptr %12, align 8
  store ptr %4, ptr %13, align 8
  store ptr %5, ptr %14, align 8
  store ptr %6, ptr %15, align 8
  store ptr %7, ptr %16, align 8
  call void @llvm.lifetime.start.p0(i64 8, ptr %17) #10
  %19 = call ptr @newNode(i64 noundef 184, i32 noundef 353)
  store ptr %19, ptr %17, align 8
  call void @llvm.lifetime.start.p0(i64 8, ptr %18) #10
  %20 = load ptr, ptr %17, align 8
  %21 = getelementptr inbounds nuw %struct.ForeignScan, ptr %20, i32 0, i32 0
  %22 = getelementptr inbounds nuw %struct.Scan, ptr %21, i32 0, i32 0
  store ptr %22, ptr %18, align 8
  %23 = load ptr, ptr %9, align 8
  %24 = load ptr, ptr %18, align 8
  %25 = getelementptr inbounds nuw %struct.Plan, ptr %24, i32 0, i32 10
  store ptr %23, ptr %25, align 8
  %26 = load ptr, ptr %10, align 8
  %27 = load ptr, ptr %18, align 8
  %28 = getelementptr inbounds nuw %struct.Plan, ptr %27, i32 0, i32 11
  store ptr %26, ptr %28, align 8
  %29 = load ptr, ptr %16, align 8
  %30 = load ptr, ptr %18, align 8
  %31 = getelementptr inbounds nuw %struct.Plan, ptr %30, i32 0, i32 12
  store ptr %29, ptr %31, align 8
  %32 = load ptr, ptr %18, align 8
  %33 = getelementptr inbounds nuw %struct.Plan, ptr %32, i32 0, i32 13
  store ptr null, ptr %33, align 8
  %34 = load i32, ptr %11, align 4
  %35 = load ptr, ptr %17, align 8
  %36 = getelementptr inbounds nuw %struct.ForeignScan, ptr %35, i32 0, i32 0
  %37 = getelementptr inbounds nuw %struct.Scan, ptr %36, i32 0, i32 1
  store i32 %34, ptr %37, align 8
  %38 = load ptr, ptr %17, align 8
  %39 = getelementptr inbounds nuw %struct.ForeignScan, ptr %38, i32 0, i32 1
  store i32 1, ptr %39, align 8
  %40 = load ptr, ptr %17, align 8
  %41 = getelementptr inbounds nuw %struct.ForeignScan, ptr %40, i32 0, i32 2
  store i32 0, ptr %41, align 4
  %42 = load ptr, ptr %17, align 8
  %43 = getelementptr inbounds nuw %struct.ForeignScan, ptr %42, i32 0, i32 3
  store i32 0, ptr %43, align 8
  %44 = load ptr, ptr %17, align 8
  %45 = getelementptr inbounds nuw %struct.ForeignScan, ptr %44, i32 0, i32 4
  store i32 0, ptr %45, align 4
  %46 = load ptr, ptr %12, align 8
  %47 = load ptr, ptr %17, align 8
  %48 = getelementptr inbounds nuw %struct.ForeignScan, ptr %47, i32 0, i32 5
  store ptr %46, ptr %48, align 8
  %49 = load ptr, ptr %13, align 8
  %50 = load ptr, ptr %17, align 8
  %51 = getelementptr inbounds nuw %struct.ForeignScan, ptr %50, i32 0, i32 6
  store ptr %49, ptr %51, align 8
  %52 = load ptr, ptr %14, align 8
  %53 = load ptr, ptr %17, align 8
  %54 = getelementptr inbounds nuw %struct.ForeignScan, ptr %53, i32 0, i32 7
  store ptr %52, ptr %54, align 8
  %55 = load ptr, ptr %15, align 8
  %56 = load ptr, ptr %17, align 8
  %57 = getelementptr inbounds nuw %struct.ForeignScan, ptr %56, i32 0, i32 8
  store ptr %55, ptr %57, align 8
  %58 = load ptr, ptr %17, align 8
  %59 = getelementptr inbounds nuw %struct.ForeignScan, ptr %58, i32 0, i32 9
  store ptr null, ptr %59, align 8
  %60 = load ptr, ptr %17, align 8
  %61 = getelementptr inbounds nuw %struct.ForeignScan, ptr %60, i32 0, i32 10
  store ptr null, ptr %61, align 8
  %62 = load ptr, ptr %17, align 8
  %63 = getelementptr inbounds nuw %struct.ForeignScan, ptr %62, i32 0, i32 11
  store i8 0, ptr %63, align 8
  %64 = load ptr, ptr %17, align 8
  call void @llvm.lifetime.end.p0(i64 8, ptr %18) #10
  call void @llvm.lifetime.end.p0(i64 8, ptr %17) #10
  ret ptr %64
}