; Function Attrs: nounwind uwtable
define dso_local noundef ptr @make_foreignscan(ptr noundef %0, ptr noundef %1, i32 noundef %2, ptr noundef %3, ptr noundef %4, ptr noundef %5, ptr noundef %6, ptr noundef %7) local_unnamed_addr #0 {
  %9 = tail call noundef ptr @palloc0(i64 noundef 184) #12
  store i32 353, ptr %9, align 4
  %10 = getelementptr inbounds nuw i8, ptr %9, i64 48
  store ptr %0, ptr %10, align 8
  %11 = getelementptr inbounds nuw i8, ptr %9, i64 56
  store ptr %1, ptr %11, align 8
  %12 = getelementptr inbounds nuw i8, ptr %9, i64 64
  store ptr %7, ptr %12, align 8
  %13 = getelementptr inbounds nuw i8, ptr %9, i64 72
  store ptr null, ptr %13, align 8
  %14 = getelementptr inbounds nuw i8, ptr %9, i64 104
  store i32 %2, ptr %14, align 8
  %15 = getelementptr inbounds nuw i8, ptr %9, i64 112
  store i32 1, ptr %15, align 8
  %16 = getelementptr inbounds nuw i8, ptr %9, i64 116
  store i32 0, ptr %16, align 4
  %17 = getelementptr inbounds nuw i8, ptr %9, i64 120
  store i32 0, ptr %17, align 8
  %18 = getelementptr inbounds nuw i8, ptr %9, i64 124
  store i32 0, ptr %18, align 4
  %19 = getelementptr inbounds nuw i8, ptr %9, i64 128
  store ptr %3, ptr %19, align 8
  %20 = getelementptr inbounds nuw i8, ptr %9, i64 136
  store ptr %4, ptr %20, align 8
  %21 = getelementptr inbounds nuw i8, ptr %9, i64 144
  store ptr %5, ptr %21, align 8
  %22 = getelementptr inbounds nuw i8, ptr %9, i64 152
  store ptr %6, ptr %22, align 8
  %23 = getelementptr inbounds nuw i8, ptr %9, i64 160
  tail call void @llvm.memset.p0.i64(ptr noundef nonnull align 8 dereferenceable(17) %23, i8 0, i64 17, i1 false)
  ret ptr %9
}